target datalayout = "e-m:e-p270:32:32-p271:32:32-p272:64:64-i64:64-i128:128-f80:128-n8:16:32:64-S128"
target triple = "x86_64-pc-linux-gnu"

%struct._zval_struct = type { %union._zend_value, %union.anon, %union.anon.2 }
%union._zend_value = type { i64 }
%union.anon = type { i32 }
%union.anon.2 = type { i32 }
%struct._zend_op_array = type { i8, [3 x i8], i32, ptr, ptr, ptr, i32, i32, ptr, ptr, ptr, ptr, i32, i32, i32, i32, ptr, ptr, ptr, ptr, ptr, i32, i32, ptr, ptr, ptr, i32, i32, i32, i32, ptr, ptr, [6 x ptr] }
%struct._zend_execute_data = type { ptr, ptr, ptr, ptr, %struct._zval_struct, ptr, ptr, ptr, ptr }
%struct._zend_jit_op_array_extension = type { %struct._zend_func_info, ptr }
%struct._zend_func_info = type { i32, i32, %struct._zend_ssa, ptr, ptr, ptr, %struct._zend_ssa_var_info }
%struct._zend_ssa = type { %struct._zend_cfg, i32, i32, ptr, ptr, ptr, ptr }
%struct._zend_cfg = type { i32, i32, ptr, ptr, ptr, i32 }
%struct._zend_ssa_var_info = type { i32, i8, %struct._zend_ssa_range, ptr }
%struct._zend_ssa_range = type { i64, i64, i8, i8 }

@zend_func_info_rid = external global i32, align 4
@zend_jit_profile_counter_rid = external global i32, align 4
@zend_jit_profile_counter = external global i64, align 8

; Function Attrs: nounwind uwtable
define hidden i32 @zend_jit_profile_helper(ptr noundef %0) #0 {
  %2 = alloca ptr, align 8
  %3 = alloca ptr, align 8
  %4 = alloca ptr, align 8
  %5 = alloca ptr, align 8
  store ptr %0, ptr %2, align 8
  %6 = load ptr, ptr %2, align 8
  %7 = getelementptr inbounds %struct._zend_execute_data, ptr %6, i32 0, i32 3
  %8 = load ptr, ptr %7, align 8
  store ptr %8, ptr %3, align 8
  %9 = load ptr, ptr %3, align 8
  %10 = getelementptr inbounds %struct._zend_op_array, ptr %9, i32 0, i32 32
  %11 = load i32, ptr @zend_func_info_rid, align 4
  %12 = sext i32 %11 to i64
  %13 = getelementptr inbounds [6 x ptr], ptr %10, i64 0, i64 %12
  %14 = load ptr, ptr %13, align 8
  store ptr %14, ptr %4, align 8
  %15 = load ptr, ptr %4, align 8
  %16 = getelementptr inbounds %struct._zend_jit_op_array_extension, ptr %15, i32 0, i32 1
  %17 = load ptr, ptr %16, align 8
  store ptr %17, ptr %5, align 8
  %18 = load ptr, ptr %2, align 8
  %19 = getelementptr inbounds %struct._zend_execute_data, ptr %18, i32 0, i32 7
  %20 = load ptr, ptr %19, align 8
  %21 = load i32, ptr @zend_jit_profile_counter_rid, align 4
  %22 = sext i32 %21 to i64
  %23 = getelementptr inbounds ptr, ptr %20, i64 %22
  %24 = load i64, ptr %23, align 8
  %25 = add i64 %24, 1
  store i64 %25, ptr %23, align 8
  %26 = load i64, ptr @zend_jit_profile_counter, align 8
  %27 = add i64 %26, 1
  store i64 %27, ptr @zend_jit_profile_counter, align 8
  br label %28

28:                                               ; preds = %1
  %29 = load ptr, ptr %5, align 8
  %30 = load ptr, ptr %2, align 8
  %31 = call i32 %29(ptr noundef %30)
  br label %32

32:                                               ; preds = %28
  ret i32 %31
}