; Function Attrs: nounwind uwtable
define hidden i32 @zend_jit_profile_helper(ptr noundef %0) local_unnamed_addr #0 {
  %2 = getelementptr inbounds i8, ptr %0, i64 24
  %3 = load ptr, ptr %2, align 8
  %4 = getelementptr inbounds i8, ptr %3, i64 192
  %5 = load i32, ptr @zend_func_info_rid, align 4
  %6 = sext i32 %5 to i64
  %7 = getelementptr inbounds [6 x ptr], ptr %4, i64 0, i64 %6
  %8 = load ptr, ptr %7, align 8
  %9 = getelementptr inbounds i8, ptr %8, i64 152
  %10 = load ptr, ptr %9, align 8
  %11 = getelementptr inbounds i8, ptr %0, i64 64
  %12 = load ptr, ptr %11, align 8
  %13 = load i32, ptr @zend_jit_profile_counter_rid, align 4
  %14 = sext i32 %13 to i64
  %15 = getelementptr inbounds ptr, ptr %12, i64 %14
  %16 = load i64, ptr %15, align 8
  %17 = add i64 %16, 1
  store i64 %17, ptr %15, align 8
  %18 = load i64, ptr @zend_jit_profile_counter, align 8
  %19 = add i64 %18, 1
  store i64 %19, ptr @zend_jit_profile_counter, align 8
  %20 = tail call i32 %10(ptr noundef %0) #6
  ret i32 %20
}